target datalayout = "e-m:e-p270:32:32-p271:32:32-p272:64:64-i64:64-i128:128-f80:128-n8:16:32:64-S128"
target triple = "x86_64-pc-linux-gnu"

%"class.zmq::io_object_t" = type { %"struct.zmq::i_poll_events", ptr }
%"struct.zmq::i_poll_events" = type { ptr }

@stderr = external global ptr, align 8
@.str = private unnamed_addr constant [30 x i8] c"Assertion failed: %s (%s:%d)\0A\00", align 1
@.str.2 = private unnamed_addr constant [109 x i8] c"generated/home/dtcxzyw/WorkSpace/Projects/compilers/llvm-opt-benchmark/bench/libzmq/libzmq/src/io_object.cpp\00", align 1
@.str.4 = private unnamed_addr constant [8 x i8] c"_poller\00", align 1

; Function Attrs: mustprogress uwtable
define void @_ZN3zmq11io_object_t6unplugEv(ptr noundef nonnull align 8 dereferenceable(16) %0) #0 align 2 {
  %2 = alloca ptr, align 8
  store ptr %0, ptr %2, align 8, !tbaa !3
  %3 = load ptr, ptr %2, align 8
  br label %4

4:                                                ; preds = %1
  %5 = getelementptr inbounds nuw %"class.zmq::io_object_t", ptr %3, i32 0, i32 1
  %6 = load ptr, ptr %5, align 8, !tbaa !12
  %7 = icmp ne ptr %6, null
  %8 = xor i1 %7, true
  %9 = zext i1 %8 to i64
  %10 = call i64 @llvm.expect.i64(i64 %9, i64 0)
  %11 = icmp ne i64 %10, 0
  br i1 %11, label %12, label %17

12:                                               ; preds = %4
  %13 = load ptr, ptr @stderr, align 8, !tbaa !18
  %14 = call i32 (ptr, ptr, ...) @fprintf(ptr noundef %13, ptr noundef @.str, ptr noundef @.str.4, ptr noundef @.str.2, i32 noundef 29) #8
  %15 = load ptr, ptr @stderr, align 8, !tbaa !18
  %16 = call i32 @fflush(ptr noundef %15)
  call void @_ZN3zmq9zmq_abortEPKc(ptr noundef @.str.4)
  br label %17

17:                                               ; preds = %12, %4
  br label %18

18:                                               ; preds = %17
  %19 = getelementptr inbounds nuw %"class.zmq::io_object_t", ptr %3, i32 0, i32 1
  store ptr null, ptr %19, align 8, !tbaa !12
  ret void
}