; Function Attrs: mustprogress uwtable
define void @_ZN3zmq11io_object_t6unplugEv(ptr noundef nonnull align 8 captures(none) dereferenceable(16) %0) local_unnamed_addr #0 align 2 {
  %2 = getelementptr inbounds nuw i8, ptr %0, i64 8
  %3 = load ptr, ptr %2, align 8, !tbaa !6
  %.not = icmp eq ptr %3, null
  br i1 %.not, label %4, label %9, !prof !12

4:                                                ; preds = %1
  %5 = load ptr, ptr @stderr, align 8, !tbaa !13
  %6 = tail call i32 (ptr, ptr, ...) @fprintf(ptr noundef %5, ptr noundef nonnull @.str, ptr noundef nonnull @.str.4, ptr noundef nonnull @.str.2, i32 noundef 29) #7
  %7 = load ptr, ptr @stderr, align 8, !tbaa !13
  %8 = tail call i32 @fflush(ptr noundef %7)
  tail call void @_ZN3zmq9zmq_abortEPKc(ptr noundef nonnull @.str.4)
  br label %9

9:                                                ; preds = %1, %4
  store ptr null, ptr %2, align 8, !tbaa !6
  ret void
}